target datalayout = "e-m:e-p270:32:32-p271:32:32-p272:64:64-i64:64-i128:128-f80:128-n8:16:32:64-S128"
target triple = "x86_64-pc-linux-gnu"

%struct._address = type { i32, i32, ptr, ptr }
%struct._endpoint_item_t = type { ptr, %struct._address, i32, i32, i64, i64, i64, i64, i64, i64, i64, i64, i8, i8 }

@ieee802_15_4_short_address_type = internal global i32 -1, align 4
@.str.105 = private unnamed_addr constant [12 x i8] c"wpan.addr16\00", align 1
@.str.107 = private unnamed_addr constant [12 x i8] c"wpan.addr64\00", align 1
@.str.1192 = private unnamed_addr constant [8 x i8] c"INVALID\00", align 1

; Function Attrs: nounwind null_pointer_is_valid sspstrong uwtable
define internal ptr @ieee802154_endpoint_get_filter_type(ptr noundef %0, i32 noundef %1) #8 {
  %3 = alloca ptr, align 8
  %4 = alloca ptr, align 8
  %5 = alloca i32, align 4
  store ptr %0, ptr %4, align 8
  store i32 %1, ptr %5, align 4
  %6 = load i32, ptr %5, align 4
  %7 = icmp eq i32 %6, 2
  br i1 %7, label %8, label %25

8:                                                ; preds = %2
  %9 = load ptr, ptr %4, align 8
  %10 = getelementptr inbounds nuw %struct._endpoint_item_t, ptr %9, i32 0, i32 1
  %11 = getelementptr inbounds nuw %struct._address, ptr %10, i32 0, i32 0
  %12 = load i32, ptr %11, align 8
  %13 = load i32, ptr @ieee802_15_4_short_address_type, align 4
  %14 = icmp eq i32 %12, %13
  br i1 %14, label %15, label %16

15:                                               ; preds = %8
  store ptr @.str.105, ptr %3, align 8
  br label %26

16:                                               ; preds = %8
  %17 = load ptr, ptr %4, align 8
  %18 = getelementptr inbounds nuw %struct._endpoint_item_t, ptr %17, i32 0, i32 1
  %19 = getelementptr inbounds nuw %struct._address, ptr %18, i32 0, i32 0
  %20 = load i32, ptr %19, align 8
  %21 = icmp eq i32 %20, 8
  br i1 %21, label %22, label %23

22:                                               ; preds = %16
  store ptr @.str.107, ptr %3, align 8
  br label %26

23:                                               ; preds = %16
  br label %24

24:                                               ; preds = %23
  br label %25

25:                                               ; preds = %24, %2
  store ptr @.str.1192, ptr %3, align 8
  br label %26

26:                                               ; preds = %25, %22, %15
  %27 = load ptr, ptr %3, align 8
  ret ptr %27
}