; Function Attrs: mustprogress nofree norecurse nosync nounwind null_pointer_is_valid sspstrong willreturn memory(read, inaccessiblemem: none) uwtable
define internal noundef nonnull ptr @ieee802154_endpoint_get_filter_type(ptr noundef readonly captures(none) %0, i32 noundef %1) #15 {
  %3 = icmp eq i32 %1, 2
  br i1 %3, label %4, label %11

4:                                                ; preds = %2
  %5 = getelementptr inbounds nuw i8, ptr %0, i64 8
  %6 = load i32, ptr %5, align 8
  %7 = load i32, ptr @ieee802_15_4_short_address_type, align 4
  %8 = icmp eq i32 %6, %7
  br i1 %8, label %12, label %9

9:                                                ; preds = %4
  %10 = icmp eq i32 %6, 8
  br i1 %10, label %12, label %11

11:                                               ; preds = %9, %2
  br label %12

12:                                               ; preds = %9, %4, %11
  %.0 = phi ptr [ @.str.1192, %11 ], [ @.str.105, %4 ], [ @.str.107, %9 ]
  ret ptr %.0
}